; Function Attrs: mustprogress uwtable
define void @_ZNK6google8protobuf10TextFormat7Printer23PrintShortRepeatedFieldERKNS0_7MessageEPKNS0_10ReflectionEPKNS0_15FieldDescriptorEPNS1_17BaseTextGeneratorE(ptr noundef nonnull align 8 dereferenceable(112) %this, ptr noundef nonnull align 8 dereferenceable(16) %message, ptr noundef nonnull %reflection, ptr noundef %field, ptr noundef %generator) local_unnamed_addr #4 align 2 personality ptr @__gxx_personality_v0 {
entry:
  %call = tail call noundef i32 @_ZNK6google8protobuf10Reflection9FieldSizeERKNS0_7MessageEPKNS0_15FieldDescriptorE(ptr noundef nonnull align 8 dereferenceable(112) %reflection, ptr noundef nonnull align 8 dereferenceable(16) %message, ptr noundef %field)
  tail call void @_ZNK6google8protobuf10TextFormat7Printer14PrintFieldNameERKNS0_7MessageEiiPKNS0_10ReflectionEPKNS0_15FieldDescriptorEPNS1_17BaseTextGeneratorE(ptr noundef nonnull align 8 dereferenceable(112) %this, ptr noundef nonnull align 8 dereferenceable(16) %message, i32 noundef -1, i32 noundef %call, ptr noundef nonnull %reflection, ptr noundef %field, ptr noundef %generator)
  %vtable = load ptr, ptr %generator, align 8
  %vfn = getelementptr inbounds i8, ptr %vtable, i64 56
  %0 = load ptr, ptr %vfn, align 8
  tail call void %0(ptr noundef nonnull align 8 dereferenceable(8) %generator, i64 2, ptr nonnull @.str.18, i64 1, ptr nonnull @.str.7)
  %cmp22 = icmp sgt i32 %call, 0
  br i1 %cmp22, label %for.body, label %for.end

for.body:                                         ; preds = %entry, %if.end
  %i.023 = phi i32 [ %inc, %if.end ], [ 0, %entry ]
  %cmp4.not = icmp eq i32 %i.023, 0
  br i1 %cmp4.not, label %if.end, label %if.then

if.then:                                          ; preds = %for.body
  %vtable.i = load ptr, ptr %generator, align 8
  %vfn.i = getelementptr inbounds i8, ptr %vtable.i, i64 40
  %1 = load ptr, ptr %vfn.i, align 8
  tail call void %1(ptr noundef nonnull align 8 dereferenceable(8) %generator, ptr noundef nonnull @.str.2, i64 noundef 2)
  br label %if.end

if.end:                                           ; preds = %if.then, %for.body
  tail call void @_ZNK6google8protobuf10TextFormat7Printer15PrintFieldValueERKNS0_7MessageEPKNS0_10ReflectionEPKNS0_15FieldDescriptorEiPNS1_17BaseTextGeneratorE(ptr noundef nonnull align 8 dereferenceable(112) %this, ptr noundef nonnull align 8 dereferenceable(16) %message, ptr noundef nonnull %reflection, ptr noundef %field, i32 noundef %i.023, ptr noundef nonnull %generator)
  %inc = add nuw nsw i32 %i.023, 1
  %exitcond.not = icmp eq i32 %inc, %call
  br i1 %exitcond.not, label %for.end, label %for.body, !llvm.loop !108

for.end:                                          ; preds = %if.end, %entry
  %single_line_mode_ = getelementptr inbounds i8, ptr %this, i64 4
  %2 = load i8, ptr %single_line_mode_, align 4
  %3 = and i8 %2, 1
  %tobool.not = icmp eq i8 %3, 0
  %vtable.i20 = load ptr, ptr %generator, align 8
  %vfn.i21 = getelementptr inbounds i8, ptr %vtable.i20, i64 40
  %4 = load ptr, ptr %vfn.i21, align 8
  %.str.22..str.21 = select i1 %tobool.not, ptr @.str.22, ptr @.str.21
  tail call void %4(ptr noundef nonnull align 8 dereferenceable(8) %generator, ptr noundef nonnull %.str.22..str.21, i64 noundef 2)
  ret void
}